; Function Attrs: nounwind uwtable
define i32 @wc_InitRsaKey(ptr noundef %0, ptr noundef %1) local_unnamed_addr #0 {
  %3 = icmp eq ptr %0, null
  br i1 %3, label %wc_InitRsaKey_ex.exit, label %4

4:                                                ; preds = %2
  tail call void @llvm.memset.p0.i64(ptr noundef nonnull align 8 dereferenceable(8368) %0, i8 0, i64 8368, i1 false)
  %5 = getelementptr inbounds nuw i8, ptr %0, i64 8336
  store i32 -1, ptr %5, align 8, !tbaa !3
  %6 = getelementptr inbounds nuw i8, ptr %0, i64 8320
  store ptr %1, ptr %6, align 8, !tbaa !13
  %7 = getelementptr inbounds nuw i8, ptr %0, i64 8352
  store ptr null, ptr %7, align 8, !tbaa !14
  %8 = getelementptr inbounds nuw i8, ptr %0, i64 1040
  %9 = tail call i32 @sp_init_multi(ptr noundef nonnull %0, ptr noundef nonnull %8, ptr noundef null, ptr noundef null, ptr noundef null, ptr noundef null) #12
  %.not.i = icmp eq i32 %9, 0
  br i1 %.not.i, label %10, label %wc_InitRsaKey_ex.exit

10:                                               ; preds = %4
  %11 = getelementptr inbounds nuw i8, ptr %0, i64 2080
  %12 = getelementptr inbounds nuw i8, ptr %0, i64 3120
  %13 = getelementptr inbounds nuw i8, ptr %0, i64 4160
  %14 = getelementptr inbounds nuw i8, ptr %0, i64 5200
  %15 = getelementptr inbounds nuw i8, ptr %0, i64 6240
  %16 = getelementptr inbounds nuw i8, ptr %0, i64 7280
  %17 = tail call i32 @sp_init_multi(ptr noundef nonnull %11, ptr noundef nonnull %12, ptr noundef nonnull %13, ptr noundef nonnull %14, ptr noundef nonnull %15, ptr noundef nonnull %16) #12
  %.not28.i = icmp eq i32 %17, 0
  br i1 %.not28.i, label %wc_InitRsaKey_ex.exit, label %18

18:                                               ; preds = %10
  tail call void @sp_clear(ptr noundef nonnull %0) #12
  tail call void @sp_clear(ptr noundef nonnull %8) #12
  br label %wc_InitRsaKey_ex.exit

wc_InitRsaKey_ex.exit:                            ; preds = %2, %4, %10, %18
  %.0.i = phi i32 [ %17, %18 ], [ -173, %2 ], [ %9, %4 ], [ 0, %10 ]
  ret i32 %.0.i
}